; Function Attrs: mustprogress nounwind uwtable
define hidden void @_ZN19G1DirtyCardQueueSet17merge_bufferlistsEP22G1RedirtyCardsQueueSet(ptr noundef nonnull align 8 dereferenceable(928) %0, ptr noundef nonnull %1) local_unnamed_addr #0 align 2 {
  %3 = alloca %struct.BufferNodeList, align 8
  call void @_ZN22G1RedirtyCardsQueueSet26take_all_completed_buffersEv(ptr dead_on_unwind nonnull writable sret(%struct.BufferNodeList) align 8 %3, ptr noundef nonnull align 8 dereferenceable(408) %1) #15
  %4 = load ptr, ptr %3, align 8
  %.not = icmp eq ptr %4, null
  br i1 %.not, label %_ZN16NonblockingQueueI10BufferNodeXadL_ZNS0_8next_ptrERS0_EEE6appendES1_S1_.exit, label %5

5:                                                ; preds = %2
  %6 = getelementptr inbounds i8, ptr %0, i64 144
  %7 = getelementptr inbounds i8, ptr %3, i64 16
  %8 = load i64, ptr %7, align 8
  %9 = call noundef i64 asm sideeffect "lock xaddq $0,($2)", "=r,0,r,~{cc},~{memory},~{dirflag},~{fpsr},~{flags}"(i64 %8, ptr nonnull %6) #15, !srcloc !13
  %10 = getelementptr inbounds i8, ptr %0, i64 400
  %11 = load ptr, ptr %3, align 8
  %12 = getelementptr inbounds i8, ptr %3, i64 8
  %13 = load ptr, ptr %12, align 8
  %14 = getelementptr inbounds i8, ptr %13, i64 8
  store volatile ptr %10, ptr %14, align 8
  %15 = getelementptr inbounds i8, ptr %0, i64 528
  %16 = call noundef ptr asm sideeffect "xchgq ($2),$0", "=r,0,r,~{memory},~{dirflag},~{fpsr},~{flags}"(ptr nonnull %13, ptr nonnull %15) #15, !srcloc !9
  %17 = icmp eq ptr %16, null
  br i1 %17, label %22, label %18

18:                                               ; preds = %5
  %19 = getelementptr inbounds i8, ptr %16, i64 8
  %20 = call noundef ptr asm sideeffect "lock cmpxchgq $1,($3)", "={ax},r,{ax},r,~{cc},~{memory},~{dirflag},~{fpsr},~{flags}"(ptr nonnull %11, ptr nonnull %10, ptr nonnull %19) #15, !srcloc !10
  %21 = icmp eq ptr %20, %10
  br i1 %21, label %_ZN16NonblockingQueueI10BufferNodeXadL_ZNS0_8next_ptrERS0_EEE6appendES1_S1_.exit, label %22

22:                                               ; preds = %18, %5
  store volatile ptr %11, ptr %10, align 8
  br label %_ZN16NonblockingQueueI10BufferNodeXadL_ZNS0_8next_ptrERS0_EEE6appendES1_S1_.exit

_ZN16NonblockingQueueI10BufferNodeXadL_ZNS0_8next_ptrERS0_EEE6appendES1_S1_.exit: ; preds = %22, %18, %2
  ret void
}